; Function Attrs: mustprogress uwtable
define internal void @_ZL32destroy_made_transport_stream_opPvN4absl12lts_202308026StatusE(ptr noundef %arg, ptr nocapture noundef readonly %error) #5 personality ptr @__gxx_personality_v0 {
delete.notnull:
  %agg.tmp.i = alloca %"class.absl::lts_20230802::Status", align 8
  %agg.tmp = alloca %"class.absl::lts_20230802::Status", align 8
  %inner_on_complete = getelementptr inbounds i8, ptr %arg, i64 32
  %0 = load ptr, ptr %inner_on_complete, align 8
  %cancel_stream.i.i = getelementptr inbounds i8, ptr %arg, i64 224
  %1 = load i64, ptr %cancel_stream.i.i, align 8
  %and.i.i.i.i.i.i = and i64 %1, 1
  %cmp.i.i.i.i.i.i = icmp eq i64 %and.i.i.i.i.i.i, 0
  br i1 %cmp.i.i.i.i.i.i, label %delete.end, label %if.then.i.i.i.i.i

if.then.i.i.i.i.i:                                ; preds = %delete.notnull
  invoke void @_ZN4absl12lts_202308026Status15UnrefNonInlinedEm(i64 noundef %1)
          to label %delete.end unwind label %terminate.lpad.i.i.i.i

terminate.lpad.i.i.i.i:                           ; preds = %if.then.i.i.i.i.i
  %2 = landingpad { ptr, i32 }
          catch ptr null
  %3 = extractvalue { ptr, i32 } %2, 0
  tail call void @__clang_call_terminate(ptr %3) #24
  unreachable

delete.end:                                       ; preds = %if.then.i.i.i.i.i, %delete.notnull
  tail call void @_ZdlPv(ptr noundef nonnull %arg) #25
  %cmp.not = icmp eq ptr %0, null
  br i1 %cmp.not, label %if.end, label %if.then

if.then:                                          ; preds = %delete.end
  %4 = load i64, ptr %error, align 8
  store i64 %4, ptr %agg.tmp, align 8
  %and.i.i.i = and i64 %4, 1
  %cmp.i.i.i = icmp eq i64 %and.i.i.i, 0
  br i1 %cmp.i.i.i, label %if.end.i.thread, label %if.then.i.i.i

if.end.i.thread:                                  ; preds = %if.then
  call void @llvm.lifetime.start.p0(i64 8, ptr nonnull %agg.tmp.i)
  %cb.i7 = getelementptr inbounds i8, ptr %0, i64 8
  %5 = load ptr, ptr %cb.i7, align 8
  %cb_arg.i8 = getelementptr inbounds i8, ptr %0, i64 16
  %6 = load ptr, ptr %cb_arg.i8, align 8
  store i64 %4, ptr %agg.tmp.i, align 8
  br label %_ZN4absl12lts_202308026StatusC2ERKS1_.exit.i

if.then.i.i.i:                                    ; preds = %if.then
  %sub.i.i.i = add nsw i64 %4, -1
  %7 = inttoptr i64 %sub.i.i.i to ptr
  %8 = atomicrmw add ptr %7, i32 1 monotonic, align 4
  call void @llvm.lifetime.start.p0(i64 8, ptr nonnull %agg.tmp.i)
  %cb.i = getelementptr inbounds i8, ptr %0, i64 8
  %9 = load ptr, ptr %cb.i, align 8
  %cb_arg.i = getelementptr inbounds i8, ptr %0, i64 16
  %10 = load ptr, ptr %cb_arg.i, align 8
  store i64 %4, ptr %agg.tmp.i, align 8
  %sub.i.i.i.i = add nsw i64 %4, -1
  %11 = inttoptr i64 %sub.i.i.i.i to ptr
  %12 = atomicrmw add ptr %11, i32 1 monotonic, align 4
  br label %_ZN4absl12lts_202308026StatusC2ERKS1_.exit.i

_ZN4absl12lts_202308026StatusC2ERKS1_.exit.i:     ; preds = %if.end.i.thread, %if.then.i.i.i
  %13 = phi ptr [ %6, %if.end.i.thread ], [ %10, %if.then.i.i.i ]
  %14 = phi ptr [ %5, %if.end.i.thread ], [ %9, %if.then.i.i.i ]
  invoke void %14(ptr noundef %13, ptr noundef nonnull %agg.tmp.i)
          to label %invoke.cont.i unwind label %lpad.i

invoke.cont.i:                                    ; preds = %_ZN4absl12lts_202308026StatusC2ERKS1_.exit.i
  %15 = load i64, ptr %agg.tmp.i, align 8
  %and.i.i.i3.i = and i64 %15, 1
  %cmp.i.i.i4.i = icmp eq i64 %and.i.i.i3.i, 0
  br i1 %cmp.i.i.i4.i, label %invoke.cont, label %if.then.i.i5.i

if.then.i.i5.i:                                   ; preds = %invoke.cont.i
  invoke void @_ZN4absl12lts_202308026Status15UnrefNonInlinedEm(i64 noundef %15)
          to label %invoke.cont unwind label %terminate.lpad.i.i

terminate.lpad.i.i:                               ; preds = %if.then.i.i5.i
  %16 = landingpad { ptr, i32 }
          catch ptr null
  %17 = extractvalue { ptr, i32 } %16, 0
  call void @__clang_call_terminate(ptr %17) #24
  unreachable

lpad.i:                                           ; preds = %_ZN4absl12lts_202308026StatusC2ERKS1_.exit.i
  %18 = landingpad { ptr, i32 }
          cleanup
  call void @_ZN4absl12lts_202308026StatusD2Ev(ptr noundef nonnull align 8 dereferenceable(8) %agg.tmp.i) #23
  call void @_ZN4absl12lts_202308026StatusD2Ev(ptr noundef nonnull align 8 dereferenceable(8) %agg.tmp) #23
  resume { ptr, i32 } %18

invoke.cont:                                      ; preds = %if.then.i.i5.i, %invoke.cont.i
  call void @llvm.lifetime.end.p0(i64 8, ptr nonnull %agg.tmp.i)
  br i1 %cmp.i.i.i, label %if.end, label %if.then.i.i5

if.then.i.i5:                                     ; preds = %invoke.cont
  invoke void @_ZN4absl12lts_202308026Status15UnrefNonInlinedEm(i64 noundef %4)
          to label %if.end unwind label %terminate.lpad.i

terminate.lpad.i:                                 ; preds = %if.then.i.i5
  %19 = landingpad { ptr, i32 }
          catch ptr null
  %20 = extractvalue { ptr, i32 } %19, 0
  call void @__clang_call_terminate(ptr %20) #24
  unreachable

if.end:                                           ; preds = %if.then.i.i5, %invoke.cont, %delete.end
  ret void
}